Certificate:
    Data:
        Version: 3 (0x2)
        Serial Number: 1 (0x1)
        Signature Algorithm: sha1WithRSAEncryption
        Issuer: C=CN, ST=Shanghai, L=Shanghai, O=Prosnav, OU=Root CA
        Validity
            Not Before: Apr 22 02:19:23 2015 GMT
            Not After : Apr 21 02:19:23 2016 GMT
        Subject: C=CN, ST=Shanghai, O=Prosnav, OU=gindemo.com, CN=gindemo.com
        Subject Public Key Info:
            Public Key Algorithm: rsaEncryption
            RSA Public Key: (2048 bit)
                Modulus (2048 bit):
                    00:c1:cd:49:57:69:a8:01:c9:23:16:3b:f1:dc:be:
                    83:9a:e6:5d:66:11:c7:4e:38:13:92:89:07:be:83:
                    ae:9d:1e:2f:ee:cc:bc:fa:63:8a:8a:c0:68:4e:73:
                    66:8c:7f:6c:dc:97:c7:45:dd:8c:0b:bd:0b:4f:f1:
                    ce:1d:5e:be:b3:ab:9a:c1:fd:23:e1:f2:bb:31:b7:
                    ca:7c:fb:a3:71:3d:3e:93:6a:47:01:b4:60:21:ef:
                    b0:7d:77:3d:4b:65:19:1c:38:aa:b8:19:2a:54:e9:
                    c0:d2:97:60:c8:2d:60:aa:b6:56:48:df:93:85:3d:
                    d2:9c:b9:77:72:78:cd:3f:c4:69:b8:be:de:d2:e2:
                    c8:f1:19:b6:ee:2d:fa:10:42:e0:1e:15:23:ab:b5:
                    c0:66:00:c8:c4:ad:ca:4b:60:a7:1c:a1:ef:bf:45:
                    e1:44:90:ad:35:ce:6c:45:29:e8:65:1a:76:52:86:
                    51:be:af:e5:8f:d3:48:af:04:85:8a:42:e8:c5:02:
                    04:03:ae:4d:fd:2f:69:d3:94:bf:e7:91:d7:a8:d1:
                    c1:f7:03:7a:22:29:ca:d1:ce:e9:e0:c8:84:2a:94:
                    e4:b0:e7:da:07:a4:fc:b4:a4:bc:2e:5a:a4:f6:cd:
                    89:81:6a:98:ea:11:dd:f1:11:da:e7:62:e5:9c:68:
                    1e:65
                Exponent: 65537 (0x10001)
        X509v3 extensions:
            X509v3 Basic Constraints: 
                CA:FALSE
            Netscape Comment: 
                OpenSSL Generated Certificate
            X509v3 Subject Key Identifier: 
                B2:F6:BC:BF:5A:5E:DE:99:99:E7:32:1E:FF:BB:F3:52:7D:97:F2:B0
            X509v3 Authority Key Identifier: 
                keyid:19:8A:3B:AB:DC:D2:A3:39:C8:B5:8B:03:8B:7F:D2:D6:26:8A:86:28

    Signature Algorithm: sha1WithRSAEncryption
        8b:59:3c:d1:89:db:dc:aa:07:94:27:f3:0d:eb:f0:33:c3:99:
        bd:42:c3:68:a7:37:14:d7:06:2b:bd:33:e2:34:b1:5f:ad:4c:
        29:a6:ba:49:d5:e8:f8:43:b4:26:cd:e2:da:ff:7d:13:e8:36:
        eb:87:6a:51:fd:ce:27:fa:1d:46:e5:37:ef:c0:ab:13:2d:09:
        b8:06:b8:75:0e:43:90:a9:37:74:bb:e1:37:98:9b:e1:94:56:
        a8:79:c2:f9:95:ec:47:96:17:69:75:3f:0d:80:c4:a0:99:d6:
        8c:7f:da:fc:c6:00:60:3c:48:02:15:1d:5b:c4:4f:07:91:6c:
        86:8e:be:71:c0:e6:ef:34:b3:f8:e8:f5:91:9a:18:c6:51:bc:
        fe:3e:c3:03:d2:64:fb:ec:79:83:ce:d3:ed:b6:1c:41:32:ee:
        06:b3:4a:1d:f5:c6:85:d2:72:31:af:52:4b:b0:76:8f:e8:37:
        b6:e5:f8:4c:86:0f:3d:81:9b:1a:df:42:2e:8b:6b:2f:c1:e9:
        e9:4e:61:30:cd:67:05:38:61:ba:0f:26:5d:2b:65:11:ea:d8:
        56:49:d6:72:29:17:14:4a:e6:ee:87:36:4f:07:03:23:96:5e:
        9e:19:d5:ff:d4:d0:05:1e:73:d2:5a:f4:86:51:11:67:46:0e:
        53:9c:a3:c3
-----BEGIN CERTIFICATE-----
MIIDqzCCApOgAwIBAgIBATANBgkqhkiG9w0BAQUFADBXMQswCQYDVQQGEwJDTjER
MA8GA1UECBMIU2hhbmdoYWkxETAPBgNVBAcTCFNoYW5naGFpMRAwDgYDVQQKEwdQ
cm9zbmF2MRAwDgYDVQQLEwdSb290IENBMB4XDTE1MDQyMjAyMTkyM1oXDTE2MDQy
MTAyMTkyM1owXjELMAkGA1UEBhMCQ04xETAPBgNVBAgTCFNoYW5naGFpMRAwDgYD
VQQKEwdQcm9zbmF2MRQwEgYDVQQLEwtnaW5kZW1vLmNvbTEUMBIGA1UEAxMLZ2lu
ZGVtby5jb20wggEiMA0GCSqGSIb3DQEBAQUAA4IBDwAwggEKAoIBAQDBzUlXaagB
ySMWO/HcvoOa5l1mEcdOOBOSiQe+g66dHi/uzLz6Y4qKwGhOc2aMf2zcl8dF3YwL
vQtP8c4dXr6zq5rB/SPh8rsxt8p8+6NxPT6TakcBtGAh77B9dz1LZRkcOKq4GSpU
6cDSl2DILWCqtlZI35OFPdKcuXdyeM0/xGm4vt7S4sjxGbbuLfoQQuAeFSOrtcBm
AMjErcpLYKccoe+/ReFEkK01zmxFKehlGnZShlG+r+WP00ivBIWKQujFAgQDrk39
L2nTlL/nkdeo0cH3A3oiKcrRzungyIQqlOSw59oHpPy0pLwuWqT2zYmBapjqEd3x
EdrnYuWcaB5lAgMBAAGjezB5MAkGA1UdEwQCMAAwLAYJYIZIAYb4QgENBB8WHU9w
ZW5TU0wgR2VuZXJhdGVkIENlcnRpZmljYXRlMB0GA1UdDgQWBBSy9ry/Wl7emZnn
Mh7/u/NSfZfysDAfBgNVHSMEGDAWgBQZijur3NKjOci1iwOLf9LWJoqGKDANBgkq
hkiG9w0BAQUFAAOCAQEAi1k80Ynb3KoHlCfzDevwM8OZvULDaKc3FNcGK70z4jSx
X61MKaa6SdXo+EO0Js3i2v99E+g264dqUf3OJ/odRuU378CrEy0JuAa4dQ5DkKk3
dLvhN5ib4ZRWqHnC+ZXsR5YXaXU/DYDEoJnWjH/a/MYAYDxIAhUdW8RPB5Fsho6+
ccDm7zSz+Oj1kZoYxlG8/j7DA9Jk++x5g87T7bYcQTLuBrNKHfXGhdJyMa9SS7B2
j+g3tuX4TIYPPYGbGt9CLotrL8Hp6U5hMM1nBThhug8mXStlEerYVknWcikXFErm
7oc2TwcDI5ZenhnV/9TQBR5z0lr0hlERZ0YOU5yjww==
-----END CERTIFICATE-----
